target datalayout = "e-m:e-p270:32:32-p271:32:32-p272:64:64-i64:64-i128:128-f80:128-n8:16:32:64-S128"
target triple = "x86_64-pc-linux-gnu"

%struct.uniname2ctype_struct = type { i16, i16 }
%struct.OnigEncodingTypeST = type { ptr, ptr, i32, i32, ptr, ptr, ptr, ptr, ptr, ptr, ptr, ptr, ptr, ptr, ptr, ptr, ptr, i32, i32 }

@OnigEncAsciiToLowerCaseTable = external constant [0 x i8], align 1

; Function Attrs: inlinehint nounwind sspstrong uwtable
define internal i32 @uniname2ctype_hash(ptr noundef %0, i64 noundef %1) #3 {
  %3 = alloca ptr, align 8
  %4 = alloca i64, align 8
  %5 = alloca i32, align 4
  store ptr %0, ptr %3, align 8, !tbaa !20
  store i64 %1, ptr %4, align 8, !tbaa !81
  call void @llvm.lifetime.start.p0(i64 4, ptr %5) #5
  %6 = load i64, ptr %4, align 8, !tbaa !81
  %7 = trunc i64 %6 to i32
  store i32 %7, ptr %5, align 4, !tbaa !7
  %8 = load i32, ptr %5, align 4, !tbaa !7
  switch i32 %8, label %9 [
    i32 15, label %19
    i32 14, label %19
    i32 13, label %19
    i32 12, label %19
    i32 11, label %29
    i32 10, label %29
    i32 9, label %29
    i32 8, label %29
    i32 7, label %29
    i32 6, label %29
    i32 5, label %39
    i32 4, label %49
    i32 3, label %49
    i32 2, label %59
    i32 1, label %69
  ]

9:                                                ; preds = %2
  %10 = load ptr, ptr %3, align 8, !tbaa !20
  %11 = getelementptr i8, ptr %10, i64 15
  %12 = load i8, ptr %11, align 1, !tbaa !24
  %13 = zext i8 %12 to i64
  %14 = getelementptr [130 x i16], ptr @uniname2ctype_hash.asso_values, i64 0, i64 %13
  %15 = load i16, ptr %14, align 2, !tbaa !14
  %16 = zext i16 %15 to i32
  %17 = load i32, ptr %5, align 4, !tbaa !7
  %18 = add i32 %17, %16
  store i32 %18, ptr %5, align 4, !tbaa !7
  br label %19

19:                                               ; preds = %2, %2, %2, %2, %9
  %20 = load ptr, ptr %3, align 8, !tbaa !20
  %21 = getelementptr i8, ptr %20, i64 11
  %22 = load i8, ptr %21, align 1, !tbaa !24
  %23 = zext i8 %22 to i64
  %24 = getelementptr [130 x i16], ptr @uniname2ctype_hash.asso_values, i64 0, i64 %23
  %25 = load i16, ptr %24, align 2, !tbaa !14
  %26 = zext i16 %25 to i32
  %27 = load i32, ptr %5, align 4, !tbaa !7
  %28 = add i32 %27, %26
  store i32 %28, ptr %5, align 4, !tbaa !7
  br label %29

29:                                               ; preds = %2, %2, %2, %2, %2, %2, %19
  %30 = load ptr, ptr %3, align 8, !tbaa !20
  %31 = getelementptr i8, ptr %30, i64 5
  %32 = load i8, ptr %31, align 1, !tbaa !24
  %33 = zext i8 %32 to i64
  %34 = getelementptr [130 x i16], ptr @uniname2ctype_hash.asso_values, i64 0, i64 %33
  %35 = load i16, ptr %34, align 2, !tbaa !14
  %36 = zext i16 %35 to i32
  %37 = load i32, ptr %5, align 4, !tbaa !7
  %38 = add i32 %37, %36
  store i32 %38, ptr %5, align 4, !tbaa !7
  br label %39

39:                                               ; preds = %2, %29
  %40 = load ptr, ptr %3, align 8, !tbaa !20
  %41 = getelementptr i8, ptr %40, i64 4
  %42 = load i8, ptr %41, align 1, !tbaa !24
  %43 = zext i8 %42 to i64
  %44 = getelementptr [130 x i16], ptr @uniname2ctype_hash.asso_values, i64 0, i64 %43
  %45 = load i16, ptr %44, align 2, !tbaa !14
  %46 = zext i16 %45 to i32
  %47 = load i32, ptr %5, align 4, !tbaa !7
  %48 = add i32 %47, %46
  store i32 %48, ptr %5, align 4, !tbaa !7
  br label %49

49:                                               ; preds = %2, %2, %39
  %50 = load ptr, ptr %3, align 8, !tbaa !20
  %51 = getelementptr i8, ptr %50, i64 2
  %52 = load i8, ptr %51, align 1, !tbaa !24
  %53 = zext i8 %52 to i64
  %54 = getelementptr [130 x i16], ptr @uniname2ctype_hash.asso_values, i64 0, i64 %53
  %55 = load i16, ptr %54, align 2, !tbaa !14
  %56 = zext i16 %55 to i32
  %57 = load i32, ptr %5, align 4, !tbaa !7
  %58 = add i32 %57, %56
  store i32 %58, ptr %5, align 4, !tbaa !7
  br label %59

59:                                               ; preds = %2, %49
  %60 = load ptr, ptr %3, align 8, !tbaa !20
  %61 = getelementptr i8, ptr %60, i64 1
  %62 = load i8, ptr %61, align 1, !tbaa !24
  %63 = zext i8 %62 to i64
  %64 = getelementptr [130 x i16], ptr @uniname2ctype_hash.asso_values, i64 0, i64 %63
  %65 = load i16, ptr %64, align 2, !tbaa !14
  %66 = zext i16 %65 to i32
  %67 = load i32, ptr %5, align 4, !tbaa !7
  %68 = add i32 %67, %66
  store i32 %68, ptr %5, align 4, !tbaa !7
  br label %69

69:                                               ; preds = %2, %59
  %70 = load ptr, ptr %3, align 8, !tbaa !20
  %71 = getelementptr i8, ptr %70, i64 0
  %72 = load i8, ptr %71, align 1, !tbaa !24
  %73 = zext i8 %72 to i32
  %74 = add i32 %73, 2
  %75 = sext i32 %74 to i64
  %76 = getelementptr [130 x i16], ptr @uniname2ctype_hash.asso_values, i64 0, i64 %75
  %77 = load i16, ptr %76, align 2, !tbaa !14
  %78 = zext i16 %77 to i32
  %79 = load i32, ptr %5, align 4, !tbaa !7
  %80 = add i32 %79, %78
  store i32 %80, ptr %5, align 4, !tbaa !7
  br label %81

81:                                               ; preds = %69
  %82 = load i32, ptr %5, align 4, !tbaa !7
  %83 = load ptr, ptr %3, align 8, !tbaa !20
  %84 = load i64, ptr %4, align 8, !tbaa !81
  %85 = sub i64 %84, 1
  %86 = getelementptr i8, ptr %83, i64 %85
  %87 = load i8, ptr %86, align 1, !tbaa !24
  %88 = zext i8 %87 to i64
  %89 = getelementptr [130 x i16], ptr @uniname2ctype_hash.asso_values, i64 0, i64 %88
  %90 = load i16, ptr %89, align 2, !tbaa !14
  %91 = zext i16 %90 to i32
  %92 = add i32 %82, %91
  call void @llvm.lifetime.end.p0(i64 4, ptr %5) #5
  ret i32 %92
}

; Function Attrs: nounwind sspstrong uwtable
define internal ptr @uniname2ctype_p(ptr noundef %0, i64 noundef %1) #0 {
  %3 = alloca ptr, align 8
  %4 = alloca ptr, align 8
  %5 = alloca i64, align 8
  %6 = alloca i32, align 4
  %7 = alloca i32, align 4
  %8 = alloca ptr, align 8
  %9 = alloca i32, align 4
  store ptr %0, ptr %4, align 8, !tbaa !20
  store i64 %1, ptr %5, align 8, !tbaa !81
  %10 = load i64, ptr %5, align 8, !tbaa !81
  %11 = icmp ule i64 %10, 45
  br i1 %11, label %12, label %73

12:                                               ; preds = %2
  %13 = load i64, ptr %5, align 8, !tbaa !81
  %14 = icmp uge i64 %13, 1
  br i1 %14, label %15, label %73

15:                                               ; preds = %12
  call void @llvm.lifetime.start.p0(i64 4, ptr %6) #5
  %16 = load ptr, ptr %4, align 8, !tbaa !20
  %17 = load i64, ptr %5, align 8, !tbaa !81
  %18 = call i32 @uniname2ctype_hash(ptr noundef %16, i64 noundef %17)
  store i32 %18, ptr %6, align 4, !tbaa !7
  %19 = load i32, ptr %6, align 4, !tbaa !7
  %20 = icmp ule i32 %19, 6098
  br i1 %20, label %21, label %69

21:                                               ; preds = %15
  call void @llvm.lifetime.start.p0(i64 4, ptr %7) #5
  %22 = load i32, ptr %6, align 4, !tbaa !7
  %23 = zext i32 %22 to i64
  %24 = getelementptr [6099 x %struct.uniname2ctype_struct], ptr @uniname2ctype_p.wordlist, i64 0, i64 %23
  %25 = getelementptr inbounds nuw %struct.uniname2ctype_struct, ptr %24, i32 0, i32 0
  %26 = load i16, ptr %25, align 4, !tbaa !83
  %27 = sext i16 %26 to i32
  store i32 %27, ptr %7, align 4, !tbaa !7
  %28 = load i32, ptr %7, align 4, !tbaa !7
  %29 = icmp sge i32 %28, 0
  br i1 %29, label %30, label %65

30:                                               ; preds = %21
  call void @llvm.lifetime.start.p0(i64 8, ptr %8) #5
  %31 = load i32, ptr %7, align 4, !tbaa !7
  %32 = sext i32 %31 to i64
  %33 = getelementptr i8, ptr @uniname2ctype_pool_contents, i64 %32
  store ptr %33, ptr %8, align 8, !tbaa !20
  %34 = load ptr, ptr %4, align 8, !tbaa !20
  %35 = load i8, ptr %34, align 1, !tbaa !24
  %36 = sext i8 %35 to i32
  %37 = load ptr, ptr %8, align 8, !tbaa !20
  %38 = load i8, ptr %37, align 1, !tbaa !24
  %39 = sext i8 %38 to i32
  %40 = icmp eq i32 %36, %39
  br i1 %40, label %41, label %61

41:                                               ; preds = %30
  %42 = load ptr, ptr %4, align 8, !tbaa !20
  %43 = getelementptr i8, ptr %42, i64 1
  %44 = load ptr, ptr %8, align 8, !tbaa !20
  %45 = getelementptr i8, ptr %44, i64 1
  %46 = load i64, ptr %5, align 8, !tbaa !81
  %47 = sub i64 %46, 1
  %48 = call i32 @strncmp(ptr noundef %43, ptr noundef %45, i64 noundef %47) #6
  %49 = icmp ne i32 %48, 0
  br i1 %49, label %61, label %50

50:                                               ; preds = %41
  %51 = load ptr, ptr %8, align 8, !tbaa !20
  %52 = load i64, ptr %5, align 8, !tbaa !81
  %53 = getelementptr i8, ptr %51, i64 %52
  %54 = load i8, ptr %53, align 1, !tbaa !24
  %55 = sext i8 %54 to i32
  %56 = icmp eq i32 %55, 0
  br i1 %56, label %57, label %61

57:                                               ; preds = %50
  %58 = load i32, ptr %6, align 4, !tbaa !7
  %59 = zext i32 %58 to i64
  %60 = getelementptr [6099 x %struct.uniname2ctype_struct], ptr @uniname2ctype_p.wordlist, i64 0, i64 %59
  store ptr %60, ptr %3, align 8
  store i32 1, ptr %9, align 4
  br label %62

61:                                               ; preds = %50, %41, %30
  store i32 0, ptr %9, align 4
  br label %62

62:                                               ; preds = %61, %57
  call void @llvm.lifetime.end.p0(i64 8, ptr %8) #5
  %63 = load i32, ptr %9, align 4
  switch i32 %63, label %66 [
    i32 0, label %64
  ]

64:                                               ; preds = %62
  br label %65

65:                                               ; preds = %64, %21
  store i32 0, ptr %9, align 4
  br label %66

66:                                               ; preds = %65, %62
  call void @llvm.lifetime.end.p0(i64 4, ptr %7) #5
  %67 = load i32, ptr %9, align 4
  switch i32 %67, label %70 [
    i32 0, label %68
  ]

68:                                               ; preds = %66
  br label %69

69:                                               ; preds = %68, %15
  store i32 0, ptr %9, align 4
  br label %70

70:                                               ; preds = %69, %66
  call void @llvm.lifetime.end.p0(i64 4, ptr %6) #5
  %71 = load i32, ptr %9, align 4
  switch i32 %71, label %76 [
    i32 0, label %72
    i32 1, label %74
  ]

72:                                               ; preds = %70
  br label %73

73:                                               ; preds = %72, %12, %2
  store ptr null, ptr %3, align 8
  br label %74

74:                                               ; preds = %73, %70
  %75 = load ptr, ptr %3, align 8
  ret ptr %75

76:                                               ; preds = %70
  unreachable
}

; Function Attrs: nounwind sspstrong uwtable
define internal i32 @uniname2ctype(ptr noundef %0, i32 noundef %1) #0 {
  %3 = alloca i32, align 4
  %4 = alloca ptr, align 8
  %5 = alloca i32, align 4
  %6 = alloca ptr, align 8
  %7 = alloca i32, align 4
  store ptr %0, ptr %4, align 8, !tbaa !20
  store i32 %1, ptr %5, align 4, !tbaa !7
  call void @llvm.lifetime.start.p0(i64 8, ptr %6) #5
  %8 = load ptr, ptr %4, align 8, !tbaa !20
  %9 = load i32, ptr %5, align 4, !tbaa !7
  %10 = zext i32 %9 to i64
  %11 = call ptr @uniname2ctype_p(ptr noundef %8, i64 noundef %10)
  store ptr %11, ptr %6, align 8, !tbaa !29
  %12 = load ptr, ptr %6, align 8, !tbaa !29
  %13 = icmp ne ptr %12, null
  br i1 %13, label %14, label %19

14:                                               ; preds = %2
  %15 = load ptr, ptr %6, align 8, !tbaa !29
  %16 = getelementptr inbounds nuw %struct.uniname2ctype_struct, ptr %15, i32 0, i32 1
  %17 = load i16, ptr %16, align 2, !tbaa !31
  %18 = zext i16 %17 to i32
  store i32 %18, ptr %3, align 4
  store i32 1, ptr %7, align 4
  br label %20

19:                                               ; preds = %2
  store i32 -1, ptr %3, align 4
  store i32 1, ptr %7, align 4
  br label %20

20:                                               ; preds = %19, %14
  call void @llvm.lifetime.end.p0(i64 8, ptr %6) #5
  %21 = load i32, ptr %3, align 4
  ret i32 %21
}

; Function Attrs: nounwind sspstrong uwtable
define dso_local i32 @onigenc_unicode_property_name_to_ctype(ptr noundef %0, ptr noundef %1, ptr noundef %2) #0 {
  %4 = alloca i32, align 4
  %5 = alloca ptr, align 8
  %6 = alloca ptr, align 8
  %7 = alloca ptr, align 8
  %8 = alloca i32, align 4
  %9 = alloca i32, align 4
  %10 = alloca [46 x i8], align 16
  %11 = alloca ptr, align 8
  %12 = alloca i32, align 4
  %13 = alloca i32, align 4
  store ptr %0, ptr %5, align 8, !tbaa !11
  store ptr %1, ptr %6, align 8, !tbaa !20
  store ptr %2, ptr %7, align 8, !tbaa !20
  call void @llvm.lifetime.start.p0(i64 4, ptr %8) #5
  call void @llvm.lifetime.start.p0(i64 4, ptr %9) #5
  call void @llvm.lifetime.start.p0(i64 46, ptr %10) #5
  call void @llvm.lifetime.start.p0(i64 8, ptr %11) #5
  call void @llvm.lifetime.start.p0(i64 4, ptr %12) #5
  store i32 0, ptr %8, align 4, !tbaa !7
  %14 = load ptr, ptr %6, align 8, !tbaa !20
  store ptr %14, ptr %11, align 8, !tbaa !20
  br label %15

15:                                               ; preds = %77, %3
  %16 = load ptr, ptr %11, align 8, !tbaa !20
  %17 = load ptr, ptr %7, align 8, !tbaa !20
  %18 = icmp ult ptr %16, %17
  br i1 %18, label %19, label %82

19:                                               ; preds = %15
  %20 = load ptr, ptr %5, align 8, !tbaa !11
  %21 = getelementptr inbounds nuw %struct.OnigEncodingTypeST, ptr %20, i32 0, i32 5
  %22 = load ptr, ptr %21, align 8, !tbaa !22
  %23 = load ptr, ptr %11, align 8, !tbaa !20
  %24 = load ptr, ptr %7, align 8, !tbaa !20
  %25 = load ptr, ptr %5, align 8, !tbaa !11
  %26 = call i32 %22(ptr noundef %23, ptr noundef %24, ptr noundef %25)
  store i32 %26, ptr %12, align 4, !tbaa !7
  %27 = load i32, ptr %12, align 4, !tbaa !7
  %28 = icmp eq i32 %27, 32
  br i1 %28, label %35, label %29

29:                                               ; preds = %19
  %30 = load i32, ptr %12, align 4, !tbaa !7
  %31 = icmp eq i32 %30, 45
  br i1 %31, label %35, label %32

32:                                               ; preds = %29
  %33 = load i32, ptr %12, align 4, !tbaa !7
  %34 = icmp eq i32 %33, 95
  br i1 %34, label %35, label %36

35:                                               ; preds = %32, %29, %19
  br label %53

36:                                               ; preds = %32
  %37 = load i32, ptr %12, align 4, !tbaa !7
  %38 = icmp uge i32 %37, 128
  br i1 %38, label %39, label %40

39:                                               ; preds = %36
  store i32 -223, ptr %4, align 4
  store i32 1, ptr %13, align 4
  br label %93

40:                                               ; preds = %36
  %41 = load i32, ptr %12, align 4, !tbaa !7
  %42 = zext i32 %41 to i64
  %43 = getelementptr [0 x i8], ptr @OnigEncAsciiToLowerCaseTable, i64 0, i64 %42
  %44 = load i8, ptr %43, align 1, !tbaa !24
  %45 = load i32, ptr %8, align 4, !tbaa !7
  %46 = add i32 %45, 1
  store i32 %46, ptr %8, align 4, !tbaa !7
  %47 = sext i32 %45 to i64
  %48 = getelementptr [46 x i8], ptr %10, i64 0, i64 %47
  store i8 %44, ptr %48, align 1, !tbaa !24
  %49 = load i32, ptr %8, align 4, !tbaa !7
  %50 = icmp sge i32 %49, 46
  br i1 %50, label %51, label %52

51:                                               ; preds = %40
  store i32 -223, ptr %4, align 4
  store i32 1, ptr %13, align 4
  br label %93

52:                                               ; preds = %40
  br label %53

53:                                               ; preds = %52, %35
  %54 = load ptr, ptr %5, align 8, !tbaa !11
  %55 = getelementptr inbounds nuw %struct.OnigEncodingTypeST, ptr %54, i32 0, i32 2
  %56 = load i32, ptr %55, align 8, !tbaa !25
  %57 = load ptr, ptr %5, align 8, !tbaa !11
  %58 = getelementptr inbounds nuw %struct.OnigEncodingTypeST, ptr %57, i32 0, i32 3
  %59 = load i32, ptr %58, align 4, !tbaa !26
  %60 = icmp eq i32 %56, %59
  br i1 %60, label %61, label %72

61:                                               ; preds = %53
  %62 = load ptr, ptr %11, align 8, !tbaa !20
  %63 = load ptr, ptr %7, align 8, !tbaa !20
  %64 = icmp ult ptr %62, %63
  br i1 %64, label %65, label %69

65:                                               ; preds = %61
  %66 = load ptr, ptr %5, align 8, !tbaa !11
  %67 = getelementptr inbounds nuw %struct.OnigEncodingTypeST, ptr %66, i32 0, i32 3
  %68 = load i32, ptr %67, align 4, !tbaa !26
  br label %70

69:                                               ; preds = %61
  br label %70

70:                                               ; preds = %69, %65
  %71 = phi i32 [ %68, %65 ], [ 0, %69 ]
  br label %77

72:                                               ; preds = %53
  %73 = load ptr, ptr %11, align 8, !tbaa !20
  %74 = load ptr, ptr %7, align 8, !tbaa !20
  %75 = load ptr, ptr %5, align 8, !tbaa !11
  %76 = call i32 @onigenc_mbclen(ptr noundef %73, ptr noundef %74, ptr noundef %75)
  br label %77

77:                                               ; preds = %72, %70
  %78 = phi i32 [ %71, %70 ], [ %76, %72 ]
  %79 = load ptr, ptr %11, align 8, !tbaa !20
  %80 = sext i32 %78 to i64
  %81 = getelementptr i8, ptr %79, i64 %80
  store ptr %81, ptr %11, align 8, !tbaa !20
  br label %15, !llvm.loop !27

82:                                               ; preds = %15
  %83 = load i32, ptr %8, align 4, !tbaa !7
  %84 = sext i32 %83 to i64
  %85 = getelementptr [46 x i8], ptr %10, i64 0, i64 %84
  store i8 0, ptr %85, align 1, !tbaa !24
  %86 = getelementptr inbounds [46 x i8], ptr %10, i64 0, i64 0
  %87 = load i32, ptr %8, align 4, !tbaa !7
  %88 = call i32 @uniname2ctype(ptr noundef %86, i32 noundef %87)
  store i32 %88, ptr %9, align 4, !tbaa !7
  %89 = icmp slt i32 %88, 0
  br i1 %89, label %90, label %91

90:                                               ; preds = %82
  store i32 -223, ptr %4, align 4
  store i32 1, ptr %13, align 4
  br label %93

91:                                               ; preds = %82
  %92 = load i32, ptr %9, align 4, !tbaa !7
  store i32 %92, ptr %4, align 4
  store i32 1, ptr %13, align 4
  br label %93

93:                                               ; preds = %91, %90, %51, %39
  call void @llvm.lifetime.end.p0(i64 4, ptr %12) #5
  call void @llvm.lifetime.end.p0(i64 8, ptr %11) #5
  call void @llvm.lifetime.end.p0(i64 46, ptr %10) #5
  call void @llvm.lifetime.end.p0(i64 4, ptr %9) #5
  call void @llvm.lifetime.end.p0(i64 4, ptr %8) #5
  %94 = load i32, ptr %4, align 4
  ret i32 %94
}