; Function Attrs: nounwind sspstrong uwtable
define dso_local range(i32 -223, 65536) i32 @onigenc_unicode_property_name_to_ctype(ptr noundef %0, ptr noundef %1, ptr noundef %2) local_unnamed_addr #0 {
  %4 = alloca [46 x i8], align 16
  call void @llvm.lifetime.start.p0(i64 46, ptr nonnull %4) #7
  %5 = icmp ult ptr %1, %2
  br i1 %5, label %.lr.ph, label %uniname2ctype.exit.thread

.lr.ph:                                           ; preds = %3
  %6 = getelementptr inbounds nuw i8, ptr %0, i64 32
  %7 = getelementptr inbounds nuw i8, ptr %0, i64 16
  %8 = getelementptr inbounds nuw i8, ptr %0, i64 20
  br label %9

9:                                                ; preds = %.lr.ph, %28
  %.02940 = phi ptr [ %1, %.lr.ph ], [ %31, %28 ]
  %.03039 = phi i32 [ 0, %.lr.ph ], [ %.1, %28 ]
  %10 = load ptr, ptr %6, align 8, !tbaa !16
  %11 = tail call i32 %10(ptr noundef %.02940, ptr noundef nonnull %2, ptr noundef %0) #7
  switch i32 %11, label %12 [
    i32 95, label %22
    i32 45, label %22
    i32 32, label %22
  ]

12:                                               ; preds = %9
  %13 = icmp ugt i32 %11, 127
  br i1 %13, label %uniname2ctype.exit.thread, label %14

14:                                               ; preds = %12
  %15 = zext nneg i32 %11 to i64
  %16 = getelementptr [0 x i8], ptr @OnigEncAsciiToLowerCaseTable, i64 0, i64 %15
  %17 = load i8, ptr %16, align 1, !tbaa !19
  %18 = add i32 %.03039, 1
  %19 = sext i32 %.03039 to i64
  %20 = getelementptr [46 x i8], ptr %4, i64 0, i64 %19
  store i8 %17, ptr %20, align 1, !tbaa !19
  %21 = icmp sgt i32 %18, 45
  br i1 %21, label %uniname2ctype.exit.thread, label %22

22:                                               ; preds = %9, %9, %9, %14
  %.1 = phi i32 [ %.03039, %9 ], [ %18, %14 ], [ %.03039, %9 ], [ %.03039, %9 ]
  %23 = load i32, ptr %7, align 8, !tbaa !20
  %24 = load i32, ptr %8, align 4, !tbaa !21
  %25 = icmp eq i32 %23, %24
  br i1 %25, label %28, label %26

26:                                               ; preds = %22
  %27 = tail call i32 @onigenc_mbclen(ptr noundef %.02940, ptr noundef nonnull %2, ptr noundef nonnull %0) #7
  br label %28

28:                                               ; preds = %22, %26
  %29 = phi i32 [ %27, %26 ], [ %23, %22 ]
  %30 = sext i32 %29 to i64
  %31 = getelementptr i8, ptr %.02940, i64 %30
  %32 = icmp ult ptr %31, %2
  br i1 %32, label %9, label %._crit_edge, !llvm.loop !22

._crit_edge:                                      ; preds = %28
  %33 = sext i32 %.1 to i64
  %34 = getelementptr [46 x i8], ptr %4, i64 0, i64 %33
  store i8 0, ptr %34, align 1, !tbaa !19
  %35 = zext i32 %.1 to i64
  %36 = add nsw i64 %35, -1
  %or.cond.i.i = icmp ult i64 %36, 45
  br i1 %or.cond.i.i, label %37, label %uniname2ctype.exit.thread

37:                                               ; preds = %._crit_edge
  switch i32 %.1, label %38 [
    i32 15, label %46
    i32 14, label %46
    i32 13, label %46
    i32 12, label %46
    i32 11, label %54
    i32 10, label %54
    i32 9, label %54
    i32 8, label %54
    i32 7, label %54
    i32 6, label %54
    i32 5, label %62
    i32 4, label %70
    i32 3, label %70
    i32 2, label %78
    i32 1, label %uniname2ctype_hash.exit.i.i
  ]

38:                                               ; preds = %37
  %39 = getelementptr inbounds nuw i8, ptr %4, i64 15
  %40 = load i8, ptr %39, align 1, !tbaa !19
  %41 = zext i8 %40 to i64
  %42 = getelementptr [130 x i16], ptr @uniname2ctype_hash.asso_values, i64 0, i64 %41
  %43 = load i16, ptr %42, align 2, !tbaa !7
  %44 = zext i16 %43 to i32
  %45 = add nuw nsw i32 %.1, %44
  br label %46

46:                                               ; preds = %38, %37, %37, %37, %37
  %.0.i.i.i = phi i32 [ %45, %38 ], [ %.1, %37 ], [ %.1, %37 ], [ %.1, %37 ], [ %.1, %37 ]
  %47 = getelementptr inbounds nuw i8, ptr %4, i64 11
  %48 = load i8, ptr %47, align 1, !tbaa !19
  %49 = zext i8 %48 to i64
  %50 = getelementptr [130 x i16], ptr @uniname2ctype_hash.asso_values, i64 0, i64 %49
  %51 = load i16, ptr %50, align 2, !tbaa !7
  %52 = zext i16 %51 to i32
  %53 = add nuw nsw i32 %.0.i.i.i, %52
  br label %54

54:                                               ; preds = %46, %37, %37, %37, %37, %37, %37
  %.1.i.i.i = phi i32 [ %53, %46 ], [ %.1, %37 ], [ %.1, %37 ], [ %.1, %37 ], [ %.1, %37 ], [ %.1, %37 ], [ %.1, %37 ]
  %55 = getelementptr inbounds nuw i8, ptr %4, i64 5
  %56 = load i8, ptr %55, align 1, !tbaa !19
  %57 = zext i8 %56 to i64
  %58 = getelementptr [130 x i16], ptr @uniname2ctype_hash.asso_values, i64 0, i64 %57
  %59 = load i16, ptr %58, align 2, !tbaa !7
  %60 = zext i16 %59 to i32
  %61 = add nuw nsw i32 %.1.i.i.i, %60
  br label %62

62:                                               ; preds = %54, %37
  %.2.i.i.i = phi i32 [ %61, %54 ], [ %.1, %37 ]
  %63 = getelementptr inbounds nuw i8, ptr %4, i64 4
  %64 = load i8, ptr %63, align 4, !tbaa !19
  %65 = zext i8 %64 to i64
  %66 = getelementptr [130 x i16], ptr @uniname2ctype_hash.asso_values, i64 0, i64 %65
  %67 = load i16, ptr %66, align 2, !tbaa !7
  %68 = zext i16 %67 to i32
  %69 = add nuw nsw i32 %.2.i.i.i, %68
  br label %70

70:                                               ; preds = %62, %37, %37
  %.3.i.i.i = phi i32 [ %69, %62 ], [ %.1, %37 ], [ %.1, %37 ]
  %71 = getelementptr inbounds nuw i8, ptr %4, i64 2
  %72 = load i8, ptr %71, align 2, !tbaa !19
  %73 = zext i8 %72 to i64
  %74 = getelementptr [130 x i16], ptr @uniname2ctype_hash.asso_values, i64 0, i64 %73
  %75 = load i16, ptr %74, align 2, !tbaa !7
  %76 = zext i16 %75 to i32
  %77 = add nuw nsw i32 %.3.i.i.i, %76
  br label %78

78:                                               ; preds = %70, %37
  %.4.i.i.i = phi i32 [ %77, %70 ], [ %.1, %37 ]
  %79 = getelementptr inbounds nuw i8, ptr %4, i64 1
  %80 = load i8, ptr %79, align 1, !tbaa !19
  %81 = zext i8 %80 to i64
  %82 = getelementptr [130 x i16], ptr @uniname2ctype_hash.asso_values, i64 0, i64 %81
  %83 = load i16, ptr %82, align 2, !tbaa !7
  %84 = zext i16 %83 to i32
  %85 = add nuw nsw i32 %.4.i.i.i, %84
  br label %uniname2ctype_hash.exit.i.i

uniname2ctype_hash.exit.i.i:                      ; preds = %78, %37
  %.5.i.i.i = phi i32 [ %85, %78 ], [ %.1, %37 ]
  %86 = load i8, ptr %4, align 16, !tbaa !19
  %87 = zext i8 %86 to i64
  %88 = add nuw nsw i64 %87, 2
  %89 = getelementptr [130 x i16], ptr @uniname2ctype_hash.asso_values, i64 0, i64 %88
  %90 = load i16, ptr %89, align 2, !tbaa !7
  %91 = zext i16 %90 to i32
  %92 = add nuw nsw i32 %.5.i.i.i, %91
  %93 = getelementptr i8, ptr %4, i64 %35
  %94 = getelementptr i8, ptr %93, i64 -1
  %95 = load i8, ptr %94, align 1, !tbaa !19
  %96 = zext i8 %95 to i64
  %97 = getelementptr [130 x i16], ptr @uniname2ctype_hash.asso_values, i64 0, i64 %96
  %98 = load i16, ptr %97, align 2, !tbaa !7
  %99 = zext i16 %98 to i32
  %100 = add nuw nsw i32 %92, %99
  %101 = icmp samesign ult i32 %100, 6099
  br i1 %101, label %102, label %uniname2ctype.exit.thread

102:                                              ; preds = %uniname2ctype_hash.exit.i.i
  %103 = zext nneg i32 %100 to i64
  %104 = getelementptr [6099 x %struct.uniname2ctype_struct], ptr @uniname2ctype_p.wordlist, i64 0, i64 %103
  %105 = load i16, ptr %104, align 4, !tbaa !24
  %106 = icmp sgt i16 %105, -1
  br i1 %106, label %107, label %uniname2ctype.exit.thread

107:                                              ; preds = %102
  %108 = zext nneg i16 %105 to i64
  %109 = getelementptr i8, ptr @uniname2ctype_pool_contents, i64 %108
  %110 = load i8, ptr %109, align 1, !tbaa !19
  %111 = icmp eq i8 %86, %110
  br i1 %111, label %112, label %uniname2ctype.exit.thread

112:                                              ; preds = %107
  %113 = getelementptr inbounds nuw i8, ptr %4, i64 1
  %114 = getelementptr i8, ptr %109, i64 1
  %115 = call i32 @strncmp(ptr noundef nonnull readonly %113, ptr noundef %114, i64 noundef %36) #8
  %.not.i.i = icmp eq i32 %115, 0
  br i1 %.not.i.i, label %116, label %uniname2ctype.exit.thread

116:                                              ; preds = %112
  %117 = getelementptr i8, ptr %109, i64 %35
  %118 = load i8, ptr %117, align 1, !tbaa !19
  %.not.i = icmp eq i8 %118, 0
  br i1 %.not.i, label %uniname2ctype.exit, label %uniname2ctype.exit.thread

uniname2ctype.exit:                               ; preds = %116
  %119 = getelementptr inbounds nuw i8, ptr %104, i64 2
  %120 = load i16, ptr %119, align 2, !tbaa !26
  %121 = zext i16 %120 to i32
  br label %uniname2ctype.exit.thread

uniname2ctype.exit.thread:                        ; preds = %14, %12, %3, %._crit_edge, %116, %112, %107, %102, %uniname2ctype_hash.exit.i.i, %uniname2ctype.exit
  %.0 = phi i32 [ %121, %uniname2ctype.exit ], [ -223, %uniname2ctype_hash.exit.i.i ], [ -223, %102 ], [ -223, %107 ], [ -223, %112 ], [ -223, %116 ], [ -223, %._crit_edge ], [ -223, %3 ], [ -223, %12 ], [ -223, %14 ]
  call void @llvm.lifetime.end.p0(i64 46, ptr nonnull %4) #7
  ret i32 %.0
}